target datalayout = "e-m:e-p270:32:32-p271:32:32-p272:64:64-i64:64-i128:128-f80:128-n8:16:32:64-S128"
target triple = "x86_64-pc-linux-gnu"

%struct.SN_env = type { ptr, i32, i32, i32, i32, i32, ptr, ptr }

; Function Attrs: nounwind uwtable
define internal i32 @r_undouble(ptr noundef %0) #0 {
  %2 = alloca i32, align 4
  %3 = alloca ptr, align 8
  %4 = alloca i32, align 4
  %5 = alloca i32, align 4
  store ptr %0, ptr %3, align 8
  %6 = load ptr, ptr %3, align 8
  %7 = getelementptr inbounds nuw %struct.SN_env, ptr %6, i32 0, i32 1
  %8 = load i32, ptr %7, align 8
  %9 = load ptr, ptr %3, align 8
  %10 = getelementptr inbounds nuw %struct.SN_env, ptr %9, i32 0, i32 3
  %11 = load i32, ptr %10, align 8
  %12 = icmp sle i32 %8, %11
  br i1 %12, label %13, label %14

13:                                               ; preds = %1
  store i32 0, ptr %2, align 4
  br label %54

14:                                               ; preds = %1
  %15 = load ptr, ptr %3, align 8
  %16 = getelementptr inbounds nuw %struct.SN_env, ptr %15, i32 0, i32 1
  %17 = load i32, ptr %16, align 8
  %18 = add i32 %17, -1
  store i32 %18, ptr %16, align 8
  %19 = load ptr, ptr %3, align 8
  %20 = getelementptr inbounds nuw %struct.SN_env, ptr %19, i32 0, i32 1
  %21 = load i32, ptr %20, align 8
  %22 = load ptr, ptr %3, align 8
  %23 = getelementptr inbounds nuw %struct.SN_env, ptr %22, i32 0, i32 5
  store i32 %21, ptr %23, align 8
  %24 = load ptr, ptr %3, align 8
  %25 = getelementptr inbounds nuw %struct.SN_env, ptr %24, i32 0, i32 1
  %26 = load i32, ptr %25, align 8
  %27 = sub i32 %26, 1
  %28 = load ptr, ptr %3, align 8
  %29 = getelementptr inbounds nuw %struct.SN_env, ptr %28, i32 0, i32 1
  store i32 %27, ptr %29, align 8
  %30 = load ptr, ptr %3, align 8
  %31 = getelementptr inbounds nuw %struct.SN_env, ptr %30, i32 0, i32 1
  %32 = load i32, ptr %31, align 8
  %33 = load ptr, ptr %3, align 8
  %34 = getelementptr inbounds nuw %struct.SN_env, ptr %33, i32 0, i32 3
  %35 = load i32, ptr %34, align 8
  %36 = icmp slt i32 %32, %35
  br i1 %36, label %37, label %38

37:                                               ; preds = %14
  store i32 0, ptr %2, align 4
  br label %54

38:                                               ; preds = %14
  %39 = load ptr, ptr %3, align 8
  %40 = getelementptr inbounds nuw %struct.SN_env, ptr %39, i32 0, i32 1
  %41 = load i32, ptr %40, align 8
  %42 = load ptr, ptr %3, align 8
  %43 = getelementptr inbounds nuw %struct.SN_env, ptr %42, i32 0, i32 4
  store i32 %41, ptr %43, align 4
  call void @llvm.lifetime.start.p0(i64 4, ptr %4) #3
  %44 = load ptr, ptr %3, align 8
  %45 = call i32 @slice_del(ptr noundef %44)
  store i32 %45, ptr %4, align 4
  %46 = load i32, ptr %4, align 4
  %47 = icmp slt i32 %46, 0
  br i1 %47, label %48, label %50

48:                                               ; preds = %38
  %49 = load i32, ptr %4, align 4
  store i32 %49, ptr %2, align 4
  store i32 1, ptr %5, align 4
  br label %51

50:                                               ; preds = %38
  store i32 0, ptr %5, align 4
  br label %51

51:                                               ; preds = %50, %48
  call void @llvm.lifetime.end.p0(i64 4, ptr %4) #3
  %52 = load i32, ptr %5, align 4
  switch i32 %52, label %56 [
    i32 0, label %53
    i32 1, label %54
  ]

53:                                               ; preds = %51
  store i32 1, ptr %2, align 4
  br label %54

54:                                               ; preds = %53, %51, %37, %13
  %55 = load i32, ptr %2, align 4
  ret i32 %55

56:                                               ; preds = %51
  unreachable
}