; Function Attrs: nounwind uwtable
define internal fastcc i32 @r_undouble(ptr noundef %0) unnamed_addr #0 {
  %2 = getelementptr inbounds nuw i8, ptr %0, i64 8
  %3 = load i32, ptr %2, align 8
  %4 = getelementptr inbounds nuw i8, ptr %0, i64 16
  %5 = load i32, ptr %4, align 8
  %.not = icmp sgt i32 %3, %5
  br i1 %.not, label %6, label %15

6:                                                ; preds = %1
  %7 = add nsw i32 %3, -1
  %8 = getelementptr inbounds nuw i8, ptr %0, i64 24
  store i32 %7, ptr %8, align 8
  %9 = add i32 %3, -2
  store i32 %9, ptr %2, align 8
  %10 = icmp slt i32 %9, %5
  br i1 %10, label %15, label %11

11:                                               ; preds = %6
  %12 = getelementptr inbounds nuw i8, ptr %0, i64 20
  store i32 %9, ptr %12, align 4
  %13 = tail call i32 @slice_del(ptr noundef nonnull %0) #2
  %14 = icmp sgt i32 %13, -1
  %spec.select = select i1 %14, i32 1, i32 %13
  br label %15

15:                                               ; preds = %11, %6, %1
  %.015 = phi i32 [ 0, %1 ], [ 0, %6 ], [ %spec.select, %11 ]
  ret i32 %.015
}